; Function Attrs: mustprogress nofree norecurse nosync nounwind willreturn memory(argmem: readwrite) uwtable
define hidden noundef i32 @_Z26bcdec__bitstream_read_bitsP16bcdec__bitstreami(ptr nocapture noundef %bstream, i32 noundef %numBits) local_unnamed_addr #6 {
entry:
  %notmask = shl nsw i32 -1, %numBits
  %sub = xor i32 %notmask, -1
  %0 = load i64, ptr %bstream, align 8
  %conv = zext nneg i32 %sub to i64
  %1 = trunc i64 %0 to i32
  %conv1 = and i32 %1, %sub
  %sh_prom = zext i32 %numBits to i64
  %shr = lshr i64 %0, %sh_prom
  %high = getelementptr inbounds i8, ptr %bstream, i64 8
  %2 = load i64, ptr %high, align 8
  %and4 = and i64 %2, %conv
  %conv5 = sext i32 %numBits to i64
  %sub6 = sub nsw i64 64, %conv5
  %shl7 = shl i64 %and4, %sub6
  %or = or i64 %shl7, %shr
  store i64 %or, ptr %bstream, align 8
  %shr11 = lshr i64 %2, %sh_prom
  store i64 %shr11, ptr %high, align 8
  ret i32 %conv1
}